target datalayout = "e-m:e-p270:32:32-p271:32:32-p272:64:64-i64:64-i128:128-f80:128-n8:16:32:64-S128"
target triple = "x86_64-unknown-linux-gnu"

; Function Attrs: nounwind sspstrong uwtable
define dso_local i32 @host_to_target_waitstatus(i32 noundef %status) #0 {
entry:
  %retval = alloca i32, align 4
  %status.addr = alloca i32, align 4
  store i32 %status, ptr %status.addr, align 4
  %0 = load i32, ptr %status.addr, align 4
  %and = and i32 %0, 127
  %add = add i32 %and, 1
  %conv = trunc i32 %add to i8
  %conv1 = sext i8 %conv to i32
  %shr = ashr i32 %conv1, 1
  %cmp = icmp sgt i32 %shr, 0
  br i1 %cmp, label %if.then, label %if.end

if.then:                                          ; preds = %entry
  %1 = load i32, ptr %status.addr, align 4
  %and3 = and i32 %1, 127
  %call = call i32 @host_to_target_signal(i32 noundef %and3)
  %2 = load i32, ptr %status.addr, align 4
  %and4 = and i32 %2, -128
  %or = or i32 %call, %and4
  store i32 %or, ptr %retval, align 4
  br label %return

if.end:                                           ; preds = %entry
  %3 = load i32, ptr %status.addr, align 4
  %and5 = and i32 %3, 255
  %cmp6 = icmp eq i32 %and5, 127
  br i1 %cmp6, label %if.then8, label %if.end14

if.then8:                                         ; preds = %if.end
  %4 = load i32, ptr %status.addr, align 4
  %and9 = and i32 %4, 65280
  %shr10 = ashr i32 %and9, 8
  %call11 = call i32 @host_to_target_signal(i32 noundef %shr10)
  %shl = shl i32 %call11, 8
  %5 = load i32, ptr %status.addr, align 4
  %and12 = and i32 %5, 255
  %or13 = or i32 %shl, %and12
  store i32 %or13, ptr %retval, align 4
  br label %return

if.end14:                                         ; preds = %if.end
  %6 = load i32, ptr %status.addr, align 4
  store i32 %6, ptr %retval, align 4
  br label %return

return:                                           ; preds = %if.end14, %if.then8, %if.then
  %7 = load i32, ptr %retval, align 4
  ret i32 %7
}