; Function Attrs: nounwind sspstrong uwtable
define dso_local i32 @host_to_target_waitstatus(i32 noundef %status) local_unnamed_addr #2 {
entry:
  %and = and i32 %status, 127
  %conv = shl nuw nsw i32 %and, 24
  %sext = add nuw i32 %conv, 16777216
  %cmp = icmp sgt i32 %sext, 33554431
  br i1 %cmp, label %if.then, label %if.end

if.then:                                          ; preds = %entry
  %call = tail call i32 @host_to_target_signal(i32 noundef %and) #27
  %and4 = and i32 %status, -128
  %or = or i32 %call, %and4
  br label %return

if.end:                                           ; preds = %entry
  %and5 = and i32 %status, 255
  %cmp6 = icmp eq i32 %and5, 127
  br i1 %cmp6, label %if.then8, label %return

if.then8:                                         ; preds = %if.end
  %and9 = lshr i32 %status, 8
  %shr10 = and i32 %and9, 255
  %call11 = tail call i32 @host_to_target_signal(i32 noundef %shr10) #27
  %shl = shl i32 %call11, 8
  %or13 = or disjoint i32 %shl, 127
  br label %return

return:                                           ; preds = %if.end, %if.then8, %if.then
  %retval.0 = phi i32 [ %or, %if.then ], [ %or13, %if.then8 ], [ %status, %if.end ]
  ret i32 %retval.0
}